; Function Attrs: mustprogress nofree norecurse nosync nounwind willreturn memory(read, inaccessiblemem: none) uwtable
define hidden noundef zeroext i1 @_ZNK13proof_checker13match_negatedEPK4exprPS0_(ptr nocapture nonnull readnone align 8 %this, ptr noundef readonly %a, ptr noundef readonly %b) local_unnamed_addr #11 align 2 {
entry:
  %m_kind.i.i.i = getelementptr inbounds i8, ptr %a, i64 4
  %bf.load.i.i.i = load i32, ptr %m_kind.i.i.i, align 4
  %bf.clear.i.i.i = and i32 %bf.load.i.i.i, 65535
  %cmp.i.i = icmp eq i32 %bf.clear.i.i.i, 0
  br i1 %cmp.i.i, label %land.lhs.true.i.i, label %lor.rhs

land.lhs.true.i.i:                                ; preds = %entry
  %m_decl.i.i.i.i = getelementptr inbounds i8, ptr %a, i64 16
  %0 = load ptr, ptr %m_decl.i.i.i.i, align 8
  %m_info.i.i.i.i = getelementptr inbounds i8, ptr %0, i64 24
  %1 = load ptr, ptr %m_info.i.i.i.i, align 8
  %cmp.i.i.i.i = icmp eq ptr %1, null
  br i1 %cmp.i.i.i.i, label %lor.rhs, label %_ZNK3app13get_family_idEv.exit.i.i

_ZNK3app13get_family_idEv.exit.i.i:               ; preds = %land.lhs.true.i.i
  %2 = load i32, ptr %1, align 8
  %cmp5.i.i = icmp eq i32 %2, 0
  br i1 %cmp5.i.i, label %_ZNK3app13get_decl_kindEv.exit.i.i, label %lor.rhs

_ZNK3app13get_decl_kindEv.exit.i.i:               ; preds = %_ZNK3app13get_family_idEv.exit.i.i
  %m_kind.i.i.i.i.i = getelementptr inbounds i8, ptr %1, i64 4
  %3 = load i32, ptr %m_kind.i.i.i.i.i, align 4
  %cmp9.i.i = icmp eq i32 %3, 8
  br i1 %cmp9.i.i, label %land.lhs.true10.i.i, label %lor.rhs

land.lhs.true10.i.i:                              ; preds = %_ZNK3app13get_decl_kindEv.exit.i.i
  %m_num_args.i.i.i = getelementptr inbounds i8, ptr %a, i64 24
  %4 = load i32, ptr %m_num_args.i.i.i, align 8
  %cmp13.i.i = icmp eq i32 %4, 1
  br i1 %cmp13.i.i, label %_ZNK13proof_checker9match_notEPK4exprRPS0_.exit, label %lor.rhs

_ZNK13proof_checker9match_notEPK4exprRPS0_.exit:  ; preds = %land.lhs.true10.i.i
  %m_args.i.i.i = getelementptr inbounds i8, ptr %a, i64 32
  %5 = load ptr, ptr %m_args.i.i.i, align 8
  %cmp = icmp eq ptr %5, %b
  br i1 %cmp, label %lor.end, label %lor.rhs

lor.rhs:                                          ; preds = %land.lhs.true.i.i, %entry, %_ZNK3app13get_family_idEv.exit.i.i, %_ZNK3app13get_decl_kindEv.exit.i.i, %land.lhs.true10.i.i, %_ZNK13proof_checker9match_notEPK4exprRPS0_.exit
  %t.028 = phi ptr [ %5, %_ZNK13proof_checker9match_notEPK4exprRPS0_.exit ], [ null, %land.lhs.true10.i.i ], [ null, %_ZNK3app13get_decl_kindEv.exit.i.i ], [ null, %_ZNK3app13get_family_idEv.exit.i.i ], [ null, %entry ], [ null, %land.lhs.true.i.i ]
  %m_kind.i.i.i3 = getelementptr inbounds i8, ptr %b, i64 4
  %bf.load.i.i.i4 = load i32, ptr %m_kind.i.i.i3, align 4
  %bf.clear.i.i.i5 = and i32 %bf.load.i.i.i4, 65535
  %cmp.i.i6 = icmp eq i32 %bf.clear.i.i.i5, 0
  br i1 %cmp.i.i6, label %land.lhs.true.i.i8, label %_ZNK13proof_checker9match_notEPK4exprRPS0_.exit22

land.lhs.true.i.i8:                               ; preds = %lor.rhs
  %m_decl.i.i.i.i9 = getelementptr inbounds i8, ptr %b, i64 16
  %6 = load ptr, ptr %m_decl.i.i.i.i9, align 8
  %m_info.i.i.i.i10 = getelementptr inbounds i8, ptr %6, i64 24
  %7 = load ptr, ptr %m_info.i.i.i.i10, align 8
  %cmp.i.i.i.i11 = icmp eq ptr %7, null
  br i1 %cmp.i.i.i.i11, label %_ZNK13proof_checker9match_notEPK4exprRPS0_.exit22, label %_ZNK3app13get_family_idEv.exit.i.i12

_ZNK3app13get_family_idEv.exit.i.i12:             ; preds = %land.lhs.true.i.i8
  %8 = load i32, ptr %7, align 8
  %cmp5.i.i13 = icmp eq i32 %8, 0
  br i1 %cmp5.i.i13, label %_ZNK3app13get_decl_kindEv.exit.i.i14, label %_ZNK13proof_checker9match_notEPK4exprRPS0_.exit22

_ZNK3app13get_decl_kindEv.exit.i.i14:             ; preds = %_ZNK3app13get_family_idEv.exit.i.i12
  %m_kind.i.i.i.i.i15 = getelementptr inbounds i8, ptr %7, i64 4
  %9 = load i32, ptr %m_kind.i.i.i.i.i15, align 4
  %cmp9.i.i16 = icmp eq i32 %9, 8
  br i1 %cmp9.i.i16, label %land.lhs.true10.i.i17, label %_ZNK13proof_checker9match_notEPK4exprRPS0_.exit22

land.lhs.true10.i.i17:                            ; preds = %_ZNK3app13get_decl_kindEv.exit.i.i14
  %m_num_args.i.i.i18 = getelementptr inbounds i8, ptr %b, i64 24
  %10 = load i32, ptr %m_num_args.i.i.i18, align 8
  %cmp13.i.i19 = icmp eq i32 %10, 1
  br i1 %cmp13.i.i19, label %if.then.i.i20, label %_ZNK13proof_checker9match_notEPK4exprRPS0_.exit22

if.then.i.i20:                                    ; preds = %land.lhs.true10.i.i17
  %m_args.i.i.i21 = getelementptr inbounds i8, ptr %b, i64 32
  %11 = load ptr, ptr %m_args.i.i.i21, align 8
  br label %_ZNK13proof_checker9match_notEPK4exprRPS0_.exit22

_ZNK13proof_checker9match_notEPK4exprRPS0_.exit22: ; preds = %lor.rhs, %land.lhs.true.i.i8, %_ZNK3app13get_family_idEv.exit.i.i12, %_ZNK3app13get_decl_kindEv.exit.i.i14, %land.lhs.true10.i.i17, %if.then.i.i20
  %t.1 = phi ptr [ %t.028, %land.lhs.true.i.i8 ], [ %11, %if.then.i.i20 ], [ %t.028, %land.lhs.true10.i.i17 ], [ %t.028, %_ZNK3app13get_decl_kindEv.exit.i.i14 ], [ %t.028, %_ZNK3app13get_family_idEv.exit.i.i12 ], [ %t.028, %lor.rhs ]
  %retval.0.i.i7 = phi i1 [ false, %land.lhs.true.i.i8 ], [ true, %if.then.i.i20 ], [ false, %land.lhs.true10.i.i17 ], [ false, %_ZNK3app13get_decl_kindEv.exit.i.i14 ], [ false, %_ZNK3app13get_family_idEv.exit.i.i12 ], [ false, %lor.rhs ]
  %cmp3 = icmp eq ptr %t.1, %a
  %12 = select i1 %retval.0.i.i7, i1 %cmp3, i1 false
  br label %lor.end

lor.end:                                          ; preds = %_ZNK13proof_checker9match_notEPK4exprRPS0_.exit, %_ZNK13proof_checker9match_notEPK4exprRPS0_.exit22
  %13 = phi i1 [ %12, %_ZNK13proof_checker9match_notEPK4exprRPS0_.exit22 ], [ true, %_ZNK13proof_checker9match_notEPK4exprRPS0_.exit ]
  ret i1 %13
}